; Function Attrs: nounwind uwtable
define internal ptr @zlib_Decompress_copy(ptr noundef %0, ptr noundef %1, ptr readnone captures(none) %2, i64 noundef %3, ptr noundef readonly %4) #0 {
  %.not = icmp eq i64 %3, 0
  br i1 %.not, label %6, label %9

6:                                                ; preds = %5
  %.not6 = icmp eq ptr %4, null
  br i1 %.not6, label %11, label %7

7:                                                ; preds = %6
  %8 = getelementptr i8, ptr %4, i64 16
  %.val = load i64, ptr %8, align 8, !tbaa !25
  %.not7 = icmp eq i64 %.val, 0
  br i1 %.not7, label %11, label %9

9:                                                ; preds = %7, %5
  %10 = load ptr, ptr @PyExc_TypeError, align 8, !tbaa !15
  tail call void @PyErr_SetString(ptr noundef %10, ptr noundef nonnull @.str.82) #7
  br label %13

11:                                               ; preds = %7, %6
  %12 = tail call fastcc ptr @zlib_Decompress_copy_impl(ptr noundef %0, ptr noundef %1)
  br label %13

13:                                               ; preds = %11, %9
  %.0 = phi ptr [ null, %9 ], [ %12, %11 ]
  ret ptr %.0
}